target datalayout = "e-m:e-p270:32:32-p271:32:32-p272:64:64-i64:64-i128:128-f80:128-n8:16:32:64-S128"
target triple = "x86_64-unknown-linux-gnu"

%struct.newhope_poly_st = type { [1024 x i16] }

; Function Attrs: nounwind uwtable
define internal i32 @abs_32(i32 noundef %v) #0 {
entry:
  %v.addr = alloca i32, align 4
  %mask = alloca i32, align 4
  store i32 %v, ptr %v.addr, align 4
  %0 = load i32, ptr %v.addr, align 4
  %shr = ashr i32 %0, 31
  store i32 %shr, ptr %mask, align 4
  %1 = load i32, ptr %v.addr, align 4
  %2 = load i32, ptr %mask, align 4
  %xor = xor i32 %1, %2
  %3 = load i32, ptr %mask, align 4
  %sub = sub nsw i32 %xor, %3
  ret i32 %sub
}

; Function Attrs: nounwind uwtable
define internal i32 @g(i32 noundef %x) #0 {
entry:
  %x.addr = alloca i32, align 4
  %t = alloca i32, align 4
  %c = alloca i32, align 4
  %b = alloca i32, align 4
  store i32 %x, ptr %x.addr, align 4
  %0 = load i32, ptr %x.addr, align 4
  %mul = mul nsw i32 %0, 2730
  store i32 %mul, ptr %b, align 4
  %1 = load i32, ptr %b, align 4
  %shr = ashr i32 %1, 27
  store i32 %shr, ptr %t, align 4
  %2 = load i32, ptr %x.addr, align 4
  %3 = load i32, ptr %t, align 4
  %mul1 = mul nsw i32 %3, 49156
  %sub = sub nsw i32 %2, %mul1
  store i32 %sub, ptr %b, align 4
  %4 = load i32, ptr %b, align 4
  %sub2 = sub nsw i32 49155, %4
  store i32 %sub2, ptr %b, align 4
  %5 = load i32, ptr %b, align 4
  %shr3 = ashr i32 %5, 31
  store i32 %shr3, ptr %b, align 4
  %6 = load i32, ptr %b, align 4
  %7 = load i32, ptr %t, align 4
  %sub4 = sub nsw i32 %7, %6
  store i32 %sub4, ptr %t, align 4
  %8 = load i32, ptr %t, align 4
  %and = and i32 %8, 1
  store i32 %and, ptr %c, align 4
  %9 = load i32, ptr %t, align 4
  %shr5 = ashr i32 %9, 1
  %10 = load i32, ptr %c, align 4
  %add = add nsw i32 %shr5, %10
  store i32 %add, ptr %t, align 4
  %11 = load i32, ptr %t, align 4
  %mul6 = mul nsw i32 %11, 98312
  store i32 %mul6, ptr %t, align 4
  %12 = load i32, ptr %t, align 4
  %13 = load i32, ptr %x.addr, align 4
  %sub7 = sub nsw i32 %12, %13
  %call = call i32 @abs_32(i32 noundef %sub7)
  ret i32 %call
}

; Function Attrs: nounwind uwtable
define internal signext i16 @LDDecode(i32 noundef %xi0, i32 noundef %xi1, i32 noundef %xi2, i32 noundef %xi3) #0 {
entry:
  %xi0.addr = alloca i32, align 4
  %xi1.addr = alloca i32, align 4
  %xi2.addr = alloca i32, align 4
  %xi3.addr = alloca i32, align 4
  %t = alloca i32, align 4
  store i32 %xi0, ptr %xi0.addr, align 4
  store i32 %xi1, ptr %xi1.addr, align 4
  store i32 %xi2, ptr %xi2.addr, align 4
  store i32 %xi3, ptr %xi3.addr, align 4
  %0 = load i32, ptr %xi0.addr, align 4
  %call = call i32 @g(i32 noundef %0)
  store i32 %call, ptr %t, align 4
  %1 = load i32, ptr %xi1.addr, align 4
  %call1 = call i32 @g(i32 noundef %1)
  %2 = load i32, ptr %t, align 4
  %add = add nsw i32 %2, %call1
  store i32 %add, ptr %t, align 4
  %3 = load i32, ptr %xi2.addr, align 4
  %call2 = call i32 @g(i32 noundef %3)
  %4 = load i32, ptr %t, align 4
  %add3 = add nsw i32 %4, %call2
  store i32 %add3, ptr %t, align 4
  %5 = load i32, ptr %xi3.addr, align 4
  %call4 = call i32 @g(i32 noundef %5)
  %6 = load i32, ptr %t, align 4
  %add5 = add nsw i32 %6, %call4
  store i32 %add5, ptr %t, align 4
  %7 = load i32, ptr %t, align 4
  %sub = sub nsw i32 %7, 98312
  store i32 %sub, ptr %t, align 4
  %8 = load i32, ptr %t, align 4
  %shr = ashr i32 %8, 31
  store i32 %shr, ptr %t, align 4
  %9 = load i32, ptr %t, align 4
  %and = and i32 %9, 1
  %conv = trunc i32 %and to i16
  ret i16 %conv
}

; Function Attrs: nounwind uwtable
define hidden void @newhope_reconcile(ptr noundef %key, ptr noundef %v, ptr noundef %c) #0 {
entry:
  %key.addr = alloca ptr, align 8
  %v.addr = alloca ptr, align 8
  %c.addr = alloca ptr, align 8
  %i = alloca i32, align 4
  %tmp = alloca [4 x i32], align 16
  store ptr %key, ptr %key.addr, align 8
  store ptr %v, ptr %v.addr, align 8
  store ptr %c, ptr %c.addr, align 8
  %0 = load ptr, ptr %key.addr, align 8
  call void @llvm.memset.p0.i64(ptr align 1 %0, i8 0, i64 32, i1 false)
  store i32 0, ptr %i, align 4
  br label %for.cond

for.cond:                                         ; preds = %for.inc, %entry
  %1 = load i32, ptr %i, align 4
  %cmp = icmp slt i32 %1, 256
  br i1 %cmp, label %for.body, label %for.end

for.body:                                         ; preds = %for.cond
  %2 = load ptr, ptr %v.addr, align 8
  %coeffs = getelementptr inbounds %struct.newhope_poly_st, ptr %2, i32 0, i32 0
  %3 = load i32, ptr %i, align 4
  %add = add nsw i32 0, %3
  %idxprom = sext i32 %add to i64
  %arrayidx = getelementptr inbounds [1024 x i16], ptr %coeffs, i64 0, i64 %idxprom
  %4 = load i16, ptr %arrayidx, align 2
  %conv = zext i16 %4 to i32
  %mul = mul nsw i32 8, %conv
  %add1 = add nsw i32 196624, %mul
  %5 = load ptr, ptr %c.addr, align 8
  %coeffs2 = getelementptr inbounds %struct.newhope_poly_st, ptr %5, i32 0, i32 0
  %6 = load i32, ptr %i, align 4
  %add3 = add nsw i32 0, %6
  %idxprom4 = sext i32 %add3 to i64
  %arrayidx5 = getelementptr inbounds [1024 x i16], ptr %coeffs2, i64 0, i64 %idxprom4
  %7 = load i16, ptr %arrayidx5, align 2
  %conv6 = zext i16 %7 to i32
  %mul7 = mul nsw i32 2, %conv6
  %8 = load ptr, ptr %c.addr, align 8
  %coeffs8 = getelementptr inbounds %struct.newhope_poly_st, ptr %8, i32 0, i32 0
  %9 = load i32, ptr %i, align 4
  %add9 = add nsw i32 768, %9
  %idxprom10 = sext i32 %add9 to i64
  %arrayidx11 = getelementptr inbounds [1024 x i16], ptr %coeffs8, i64 0, i64 %idxprom10
  %10 = load i16, ptr %arrayidx11, align 2
  %conv12 = zext i16 %10 to i32
  %add13 = add nsw i32 %mul7, %conv12
  %mul14 = mul nsw i32 12289, %add13
  %sub = sub nsw i32 %add1, %mul14
  %arrayidx15 = getelementptr inbounds [4 x i32], ptr %tmp, i64 0, i64 0
  store i32 %sub, ptr %arrayidx15, align 16
  %11 = load ptr, ptr %v.addr, align 8
  %coeffs16 = getelementptr inbounds %struct.newhope_poly_st, ptr %11, i32 0, i32 0
  %12 = load i32, ptr %i, align 4
  %add17 = add nsw i32 256, %12
  %idxprom18 = sext i32 %add17 to i64
  %arrayidx19 = getelementptr inbounds [1024 x i16], ptr %coeffs16, i64 0, i64 %idxprom18
  %13 = load i16, ptr %arrayidx19, align 2
  %conv20 = zext i16 %13 to i32
  %mul21 = mul nsw i32 8, %conv20
  %add22 = add nsw i32 196624, %mul21
  %14 = load ptr, ptr %c.addr, align 8
  %coeffs23 = getelementptr inbounds %struct.newhope_poly_st, ptr %14, i32 0, i32 0
  %15 = load i32, ptr %i, align 4
  %add24 = add nsw i32 256, %15
  %idxprom25 = sext i32 %add24 to i64
  %arrayidx26 = getelementptr inbounds [1024 x i16], ptr %coeffs23, i64 0, i64 %idxprom25
  %16 = load i16, ptr %arrayidx26, align 2
  %conv27 = zext i16 %16 to i32
  %mul28 = mul nsw i32 2, %conv27
  %17 = load ptr, ptr %c.addr, align 8
  %coeffs29 = getelementptr inbounds %struct.newhope_poly_st, ptr %17, i32 0, i32 0
  %18 = load i32, ptr %i, align 4
  %add30 = add nsw i32 768, %18
  %idxprom31 = sext i32 %add30 to i64
  %arrayidx32 = getelementptr inbounds [1024 x i16], ptr %coeffs29, i64 0, i64 %idxprom31
  %19 = load i16, ptr %arrayidx32, align 2
  %conv33 = zext i16 %19 to i32
  %add34 = add nsw i32 %mul28, %conv33
  %mul35 = mul nsw i32 12289, %add34
  %sub36 = sub nsw i32 %add22, %mul35
  %arrayidx37 = getelementptr inbounds [4 x i32], ptr %tmp, i64 0, i64 1
  store i32 %sub36, ptr %arrayidx37, align 4
  %20 = load ptr, ptr %v.addr, align 8
  %coeffs38 = getelementptr inbounds %struct.newhope_poly_st, ptr %20, i32 0, i32 0
  %21 = load i32, ptr %i, align 4
  %add39 = add nsw i32 512, %21
  %idxprom40 = sext i32 %add39 to i64
  %arrayidx41 = getelementptr inbounds [1024 x i16], ptr %coeffs38, i64 0, i64 %idxprom40
  %22 = load i16, ptr %arrayidx41, align 2
  %conv42 = zext i16 %22 to i32
  %mul43 = mul nsw i32 8, %conv42
  %add44 = add nsw i32 196624, %mul43
  %23 = load ptr, ptr %c.addr, align 8
  %coeffs45 = getelementptr inbounds %struct.newhope_poly_st, ptr %23, i32 0, i32 0
  %24 = load i32, ptr %i, align 4
  %add46 = add nsw i32 512, %24
  %idxprom47 = sext i32 %add46 to i64
  %arrayidx48 = getelementptr inbounds [1024 x i16], ptr %coeffs45, i64 0, i64 %idxprom47
  %25 = load i16, ptr %arrayidx48, align 2
  %conv49 = zext i16 %25 to i32
  %mul50 = mul nsw i32 2, %conv49
  %26 = load ptr, ptr %c.addr, align 8
  %coeffs51 = getelementptr inbounds %struct.newhope_poly_st, ptr %26, i32 0, i32 0
  %27 = load i32, ptr %i, align 4
  %add52 = add nsw i32 768, %27
  %idxprom53 = sext i32 %add52 to i64
  %arrayidx54 = getelementptr inbounds [1024 x i16], ptr %coeffs51, i64 0, i64 %idxprom53
  %28 = load i16, ptr %arrayidx54, align 2
  %conv55 = zext i16 %28 to i32
  %add56 = add nsw i32 %mul50, %conv55
  %mul57 = mul nsw i32 12289, %add56
  %sub58 = sub nsw i32 %add44, %mul57
  %arrayidx59 = getelementptr inbounds [4 x i32], ptr %tmp, i64 0, i64 2
  store i32 %sub58, ptr %arrayidx59, align 8
  %29 = load ptr, ptr %v.addr, align 8
  %coeffs60 = getelementptr inbounds %struct.newhope_poly_st, ptr %29, i32 0, i32 0
  %30 = load i32, ptr %i, align 4
  %add61 = add nsw i32 768, %30
  %idxprom62 = sext i32 %add61 to i64
  %arrayidx63 = getelementptr inbounds [1024 x i16], ptr %coeffs60, i64 0, i64 %idxprom62
  %31 = load i16, ptr %arrayidx63, align 2
  %conv64 = zext i16 %31 to i32
  %mul65 = mul nsw i32 8, %conv64
  %add66 = add nsw i32 196624, %mul65
  %32 = load ptr, ptr %c.addr, align 8
  %coeffs67 = getelementptr inbounds %struct.newhope_poly_st, ptr %32, i32 0, i32 0
  %33 = load i32, ptr %i, align 4
  %add68 = add nsw i32 768, %33
  %idxprom69 = sext i32 %add68 to i64
  %arrayidx70 = getelementptr inbounds [1024 x i16], ptr %coeffs67, i64 0, i64 %idxprom69
  %34 = load i16, ptr %arrayidx70, align 2
  %conv71 = zext i16 %34 to i32
  %mul72 = mul nsw i32 12289, %conv71
  %sub73 = sub nsw i32 %add66, %mul72
  %arrayidx74 = getelementptr inbounds [4 x i32], ptr %tmp, i64 0, i64 3
  store i32 %sub73, ptr %arrayidx74, align 4
  %arrayidx75 = getelementptr inbounds [4 x i32], ptr %tmp, i64 0, i64 0
  %35 = load i32, ptr %arrayidx75, align 16
  %arrayidx76 = getelementptr inbounds [4 x i32], ptr %tmp, i64 0, i64 1
  %36 = load i32, ptr %arrayidx76, align 4
  %arrayidx77 = getelementptr inbounds [4 x i32], ptr %tmp, i64 0, i64 2
  %37 = load i32, ptr %arrayidx77, align 8
  %arrayidx78 = getelementptr inbounds [4 x i32], ptr %tmp, i64 0, i64 3
  %38 = load i32, ptr %arrayidx78, align 4
  %call = call signext i16 @LDDecode(i32 noundef %35, i32 noundef %36, i32 noundef %37, i32 noundef %38)
  %conv79 = sext i16 %call to i32
  %39 = load i32, ptr %i, align 4
  %and = and i32 %39, 7
  %shl = shl i32 %conv79, %and
  %40 = load ptr, ptr %key.addr, align 8
  %41 = load i32, ptr %i, align 4
  %shr = ashr i32 %41, 3
  %idxprom80 = sext i32 %shr to i64
  %arrayidx81 = getelementptr inbounds i8, ptr %40, i64 %idxprom80
  %42 = load i8, ptr %arrayidx81, align 1
  %conv82 = zext i8 %42 to i32
  %or = or i32 %conv82, %shl
  %conv83 = trunc i32 %or to i8
  store i8 %conv83, ptr %arrayidx81, align 1
  br label %for.inc

for.inc:                                          ; preds = %for.body
  %43 = load i32, ptr %i, align 4
  %inc = add nsw i32 %43, 1
  store i32 %inc, ptr %i, align 4
  br label %for.cond, !llvm.loop !9

for.end:                                          ; preds = %for.cond
  ret void
}