; Function Attrs: nofree norecurse nosync nounwind memory(argmem: readwrite) uwtable
define hidden void @newhope_reconcile(ptr noundef captures(none) initializes((0, 32)) %key, ptr noundef readonly captures(none) %v, ptr noundef readonly captures(none) %c) local_unnamed_addr #2 {
entry:
  tail call void @llvm.memset.p0.i64(ptr noundef nonnull align 1 dereferenceable(32) %key, i8 0, i64 32, i1 false)
  br label %for.body

for.body:                                         ; preds = %entry, %for.body
  %indvars.iv = phi i64 [ 0, %entry ], [ %indvars.iv.next, %for.body ]
  %arrayidx = getelementptr inbounds nuw [1024 x i16], ptr %v, i64 0, i64 %indvars.iv
  %0 = load i16, ptr %arrayidx, align 2
  %conv = zext i16 %0 to i32
  %mul = shl nuw nsw i32 %conv, 3
  %add1 = add nuw nsw i32 %mul, 196624
  %arrayidx5 = getelementptr inbounds nuw [1024 x i16], ptr %c, i64 0, i64 %indvars.iv
  %1 = load i16, ptr %arrayidx5, align 2
  %conv6 = zext i16 %1 to i32
  %mul7 = shl nuw nsw i32 %conv6, 1
  %2 = or disjoint i64 %indvars.iv, 768
  %arrayidx11 = getelementptr inbounds nuw [1024 x i16], ptr %c, i64 0, i64 %2
  %3 = load i16, ptr %arrayidx11, align 2
  %conv12 = zext i16 %3 to i32
  %add13 = add nuw nsw i32 %mul7, %conv12
  %mul14.neg = mul i32 %add13, -12289
  %sub = add i32 %add1, %mul14.neg
  %4 = or disjoint i64 %indvars.iv, 256
  %arrayidx19 = getelementptr inbounds nuw [1024 x i16], ptr %v, i64 0, i64 %4
  %5 = load i16, ptr %arrayidx19, align 2
  %conv20 = zext i16 %5 to i32
  %mul21 = shl nuw nsw i32 %conv20, 3
  %add22 = add nuw nsw i32 %mul21, 196624
  %arrayidx26 = getelementptr inbounds nuw [1024 x i16], ptr %c, i64 0, i64 %4
  %6 = load i16, ptr %arrayidx26, align 2
  %conv27 = zext i16 %6 to i32
  %mul28 = shl nuw nsw i32 %conv27, 1
  %add34 = add nuw nsw i32 %mul28, %conv12
  %mul35.neg = mul i32 %add34, -12289
  %sub36 = add i32 %add22, %mul35.neg
  %7 = or disjoint i64 %indvars.iv, 512
  %arrayidx41 = getelementptr inbounds nuw [1024 x i16], ptr %v, i64 0, i64 %7
  %8 = load i16, ptr %arrayidx41, align 2
  %conv42 = zext i16 %8 to i32
  %mul43 = shl nuw nsw i32 %conv42, 3
  %add44 = add nuw nsw i32 %mul43, 196624
  %arrayidx48 = getelementptr inbounds nuw [1024 x i16], ptr %c, i64 0, i64 %7
  %9 = load i16, ptr %arrayidx48, align 2
  %conv49 = zext i16 %9 to i32
  %mul50 = shl nuw nsw i32 %conv49, 1
  %add56 = add nuw nsw i32 %mul50, %conv12
  %mul57.neg = mul i32 %add56, -12289
  %sub58 = add i32 %add44, %mul57.neg
  %arrayidx63 = getelementptr inbounds nuw [1024 x i16], ptr %v, i64 0, i64 %2
  %10 = load i16, ptr %arrayidx63, align 2
  %conv64 = zext i16 %10 to i32
  %mul65 = shl nuw nsw i32 %conv64, 3
  %mul72.neg = mul nsw i32 %conv12, -12289
  %add66 = add nsw i32 %mul72.neg, 196624
  %sub73 = add nsw i32 %add66, %mul65
  %mul.i.i = mul nsw i32 %sub, 2730
  %shr.i.i = ashr i32 %mul.i.i, 27
  %mul1.neg.i.i = mul nsw i32 %shr.i.i, -49156
  %sub.i.i = add i32 %mul1.neg.i.i, %sub
  %11 = icmp sgt i32 %sub.i.i, 49155
  %shr3.neg.i.i = zext i1 %11 to i32
  %sub4.i.i = add nsw i32 %shr.i.i, %shr3.neg.i.i
  %and.i.i = and i32 %sub4.i.i, 1
  %shr5.i.i = ashr i32 %sub4.i.i, 1
  %add.i.i = add nsw i32 %shr5.i.i, %and.i.i
  %mul6.i.i = mul nsw i32 %add.i.i, 98312
  %sub7.i.i = sub nsw i32 %mul6.i.i, %sub
  %sub.i.i.i = tail call range(i32 0, -2147483648) i32 @llvm.abs.i32(i32 range(i32 -2147483647, -2147483648) %sub7.i.i, i1 true)
  %mul.i7.i = mul nsw i32 %sub36, 2730
  %shr.i8.i = ashr i32 %mul.i7.i, 27
  %mul1.neg.i9.i = mul nsw i32 %shr.i8.i, -49156
  %sub.i10.i = add i32 %mul1.neg.i9.i, %sub36
  %12 = icmp sgt i32 %sub.i10.i, 49155
  %shr3.neg.i11.i = zext i1 %12 to i32
  %sub4.i12.i = add nsw i32 %shr.i8.i, %shr3.neg.i11.i
  %and.i13.i = and i32 %sub4.i12.i, 1
  %shr5.i14.i = ashr i32 %sub4.i12.i, 1
  %add.i15.i = add nsw i32 %shr5.i14.i, %and.i13.i
  %mul6.i16.i = mul nsw i32 %add.i15.i, 98312
  %sub7.i17.i = sub nsw i32 %mul6.i16.i, %sub36
  %sub.i.i18.i = tail call range(i32 0, -2147483648) i32 @llvm.abs.i32(i32 range(i32 -2147483647, -2147483648) %sub7.i17.i, i1 true)
  %mul.i19.i = mul nsw i32 %sub58, 2730
  %shr.i20.i = ashr i32 %mul.i19.i, 27
  %mul1.neg.i21.i = mul nsw i32 %shr.i20.i, -49156
  %sub.i22.i = add i32 %mul1.neg.i21.i, %sub58
  %13 = icmp sgt i32 %sub.i22.i, 49155
  %shr3.neg.i23.i = zext i1 %13 to i32
  %sub4.i24.i = add nsw i32 %shr.i20.i, %shr3.neg.i23.i
  %and.i25.i = and i32 %sub4.i24.i, 1
  %shr5.i26.i = ashr i32 %sub4.i24.i, 1
  %add.i27.i = add nsw i32 %shr5.i26.i, %and.i25.i
  %mul6.i28.i = mul nsw i32 %add.i27.i, 98312
  %sub7.i29.i = sub nsw i32 %mul6.i28.i, %sub58
  %sub.i.i30.i = tail call range(i32 0, -2147483648) i32 @llvm.abs.i32(i32 range(i32 -2147483647, -2147483648) %sub7.i29.i, i1 true)
  %mul.i31.i = mul nsw i32 %sub73, 2730
  %shr.i32.i = ashr i32 %mul.i31.i, 27
  %mul1.neg.i33.i = mul nsw i32 %shr.i32.i, -49156
  %sub.i34.i = add nsw i32 %mul1.neg.i33.i, %sub73
  %14 = icmp sgt i32 %sub.i34.i, 49155
  %shr3.neg.i35.i = zext i1 %14 to i32
  %sub4.i36.i = add nsw i32 %shr.i32.i, %shr3.neg.i35.i
  %and.i37.i = and i32 %sub4.i36.i, 1
  %shr5.i38.i = ashr i32 %sub4.i36.i, 1
  %add.i39.i = add nsw i32 %shr5.i38.i, %and.i37.i
  %mul6.i40.i = mul nsw i32 %add.i39.i, 98312
  %sub7.i41.i = sub nsw i32 %mul6.i40.i, %sub73
  %sub.i.i42.i = tail call range(i32 0, -2147483648) i32 @llvm.abs.i32(i32 range(i32 -2147483647, -2147483648) %sub7.i41.i, i1 true)
  %add.i = add nsw i32 %sub.i.i.i, -98312
  %add3.i = add i32 %add.i, %sub.i.i18.i
  %add5.i = add i32 %add3.i, %sub.i.i30.i
  %sub.i = add i32 %add5.i, %sub.i.i42.i
  %shr6.i = lshr i32 %sub.i, 31
  %15 = trunc nuw nsw i64 %indvars.iv to i32
  %and = and i32 %15, 7
  %shl = shl nuw nsw i32 %shr6.i, %and
  %shr = lshr i64 %indvars.iv, 3
  %idxprom80 = and i64 %shr, 536870911
  %arrayidx81 = getelementptr inbounds nuw i8, ptr %key, i64 %idxprom80
  %16 = load i8, ptr %arrayidx81, align 1
  %17 = trunc nuw i32 %shl to i8
  %conv83 = or i8 %16, %17
  store i8 %conv83, ptr %arrayidx81, align 1
  %indvars.iv.next = add nuw nsw i64 %indvars.iv, 1
  %exitcond.not = icmp eq i64 %indvars.iv.next, 256
  br i1 %exitcond.not, label %for.end, label %for.body, !llvm.loop !9

for.end:                                          ; preds = %for.body
  ret void
}